; Function Attrs: nounwind uwtable
define ptr @l___private_Lean_Elab_Tactic_Try_0__Lean_Elab_Tactic_Try_filterSorry___boxed(ptr noundef %0) local_unnamed_addr #0 {
  %2 = getelementptr i8, ptr %0, i64 8
  %.val.i = load i64, ptr %2, align 8, !tbaa !13
  %.mask.i = and i64 %.val.i, 9223372036854775807
  %.not.i3 = icmp eq i64 %.mask.i, 0
  %3 = load ptr, ptr @l___private_Lean_Elab_Tactic_Try_0__Lean_Elab_Tactic_Try_isExprAccessible___closed__4, align 8, !tbaa !4
  br i1 %.not.i3, label %l___private_Lean_Elab_Tactic_Try_0__Lean_Elab_Tactic_Try_filterSorry.exit, label %lean_dec.exit.i

lean_dec.exit.i:                                  ; preds = %1
  %4 = tail call ptr @l_Array_foldlMUnsafe_fold___at___private_Lean_Elab_Tactic_Try_0__Lean_Elab_Tactic_Try_filterSorry___spec__1(ptr noundef nonnull readonly %0, i64 noundef 0, i64 noundef %.mask.i, ptr noundef %3)
  br label %l___private_Lean_Elab_Tactic_Try_0__Lean_Elab_Tactic_Try_filterSorry.exit

l___private_Lean_Elab_Tactic_Try_0__Lean_Elab_Tactic_Try_filterSorry.exit: ; preds = %1, %lean_dec.exit.i
  %.0.i = phi ptr [ %4, %lean_dec.exit.i ], [ %3, %1 ]
  %5 = ptrtoint ptr %0 to i64
  %6 = and i64 %5, 1
  %.not = icmp eq i64 %6, 0
  br i1 %.not, label %7, label %lean_dec.exit

7:                                                ; preds = %l___private_Lean_Elab_Tactic_Try_0__Lean_Elab_Tactic_Try_filterSorry.exit
  %8 = load i32, ptr %0, align 4, !tbaa !8
  %9 = icmp sgt i32 %8, 1
  br i1 %9, label %10, label %12, !prof !11

10:                                               ; preds = %7
  %11 = add nsw i32 %8, -1
  store i32 %11, ptr %0, align 4, !tbaa !8
  br label %lean_dec.exit

12:                                               ; preds = %7
  %.not.i = icmp eq i32 %8, 0
  br i1 %.not.i, label %lean_dec.exit, label %13

13:                                               ; preds = %12
  tail call void @lean_dec_ref_cold(ptr noundef nonnull %0) #5
  br label %lean_dec.exit

lean_dec.exit:                                    ; preds = %13, %12, %10, %l___private_Lean_Elab_Tactic_Try_0__Lean_Elab_Tactic_Try_filterSorry.exit
  ret ptr %.0.i
}